; Function Attrs: nounwind uwtable
define internal ptr @heaptype_with_member_set_memb(ptr noundef %0, ptr noundef %1) #0 {
  %3 = getelementptr i8, ptr %0, i64 8
  %.val = load ptr, ptr %3, align 8, !tbaa !27
  %4 = tail call ptr @PyType_GetSlot(ptr noundef %.val, i32 noundef 72) #8
  %.not.i = icmp eq ptr %4, null
  br i1 %.not.i, label %5, label %7

5:                                                ; preds = %2
  %6 = tail call ptr @PyErr_Occurred() #8
  %.not10.i = icmp eq ptr %6, null
  br i1 %.not10.i, label %.sink.split.i, label %heaptype_with_member_extract_and_check_memb.exit

7:                                                ; preds = %2
  %8 = load ptr, ptr %4, align 8, !tbaa !18
  %.not11.i = icmp eq ptr %8, null
  br i1 %.not11.i, label %.sink.split.i, label %9

9:                                                ; preds = %7
  %10 = getelementptr i8, ptr %4, i64 40
  %11 = load ptr, ptr %10, align 8, !tbaa !18
  %.not12.i = icmp eq ptr %11, null
  br i1 %.not12.i, label %12, label %.sink.split.i

12:                                               ; preds = %9
  %13 = tail call i32 @strcmp(ptr noundef nonnull dereferenceable(1) %8, ptr noundef nonnull dereferenceable(5) @.str.25) #9
  %.not13.i = icmp eq i32 %13, 0
  br i1 %.not13.i, label %14, label %.sink.split.i

14:                                               ; preds = %12
  %15 = getelementptr inbounds nuw i8, ptr %4, i64 24
  %16 = load i32, ptr %15, align 8, !tbaa !23
  %.not14.i = icmp eq i32 %16, 0
  br i1 %.not14.i, label %heaptype_with_member_extract_and_check_memb.exit, label %.sink.split.i

.sink.split.i:                                    ; preds = %14, %12, %9, %7, %5
  %.str.33.sink.i = phi ptr [ @.str.33, %5 ], [ @.str.34, %7 ], [ @.str.35, %9 ], [ @.str.36, %12 ], [ @.str.37, %14 ]
  %17 = load ptr, ptr @PyExc_ValueError, align 8, !tbaa !15
  tail call void @PyErr_SetString(ptr noundef %17, ptr noundef nonnull %.str.33.sink.i) #8
  br label %heaptype_with_member_extract_and_check_memb.exit

heaptype_with_member_extract_and_check_memb.exit: ; preds = %5, %14, %.sink.split.i
  %.0.i = phi ptr [ null, %5 ], [ %4, %14 ], [ null, %.sink.split.i ]
  %18 = tail call i32 @PyMember_SetOne(ptr noundef nonnull %0, ptr noundef %.0.i, ptr noundef %1) #8
  %19 = icmp slt i32 %18, 0
  %._Py_NoneStruct = select i1 %19, ptr null, ptr @_Py_NoneStruct
  ret ptr %._Py_NoneStruct
}